target datalayout = "e-m:e-p270:32:32-p271:32:32-p272:64:64-i64:64-i128:128-f80:128-n8:16:32:64-S128"
target triple = "x86_64-pc-linux-gnu"

%struct.PJconsts = type <{ ptr, ptr, ptr, ptr, ptr, ptr, ptr, ptr, ptr, ptr, ptr, ptr, i32, [4 x i8], ptr, ptr, ptr, ptr, ptr, ptr, ptr, ptr, double, double, double, double, double, double, double, double, double, double, double, double, double, double, double, double, double, double, double, double, double, double, i32, i32, i32, i32, i32, i32, i32, i32, i32, i32, i32, [4 x i8], ptr, ptr, ptr, ptr, ptr, ptr, double, double, double, double, double, double, double, double, double, double, double, i32, [4 x i8], [7 x double], i32, [4 x i8], ptr, ptr, double, double, i32, [4 x i8], %"class.std::shared_ptr", i8, [7 x i8], double, i8, [7 x i8], %"class.std::__cxx11::basic_string", %"class.std::__cxx11::basic_string", %"class.std::__cxx11::basic_string", i8, [7 x i8], %"class.std::vector", i32, [4 x i8], %"class.std::vector.3", i32, i8, i8, i8, i8 }>
%"class.std::shared_ptr" = type { %"class.std::__shared_ptr" }
%"class.std::__shared_ptr" = type { ptr, %"class.std::__shared_count" }
%"class.std::__shared_count" = type { ptr }
%"class.std::__cxx11::basic_string" = type { %"struct.std::__cxx11::basic_string<char>::_Alloc_hider", i64, %union.anon }
%"struct.std::__cxx11::basic_string<char>::_Alloc_hider" = type { ptr }
%union.anon = type { i64, [8 x i8] }
%"class.std::vector" = type { %"struct.std::_Vector_base" }
%"struct.std::_Vector_base" = type { %"struct.std::_Vector_base<osgeo::proj::operation::GridDescription, std::allocator<osgeo::proj::operation::GridDescription>>::_Vector_impl" }
%"struct.std::_Vector_base<osgeo::proj::operation::GridDescription, std::allocator<osgeo::proj::operation::GridDescription>>::_Vector_impl" = type { %"struct.std::_Vector_base<osgeo::proj::operation::GridDescription, std::allocator<osgeo::proj::operation::GridDescription>>::_Vector_impl_data" }
%"struct.std::_Vector_base<osgeo::proj::operation::GridDescription, std::allocator<osgeo::proj::operation::GridDescription>>::_Vector_impl_data" = type { ptr, ptr, ptr }
%"class.std::vector.3" = type { %"struct.std::_Vector_base.4" }
%"struct.std::_Vector_base.4" = type { %"struct.std::_Vector_base<PJCoordOperation, std::allocator<PJCoordOperation>>::_Vector_impl" }
%"struct.std::_Vector_base<PJCoordOperation, std::allocator<PJCoordOperation>>::_Vector_impl" = type { %"struct.std::_Vector_base<PJCoordOperation, std::allocator<PJCoordOperation>>::_Vector_impl_data" }
%"struct.std::_Vector_base<PJCoordOperation, std::allocator<PJCoordOperation>>::_Vector_impl_data" = type { ptr, ptr, ptr }
%union.PROJVALUE = type { double }

@.str.27 = private unnamed_addr constant [15 x i8] c"No memory left\00", align 1
@.str.28 = private unnamed_addr constant [4 x i8] c"t%s\00", align 1
@.str.29 = private unnamed_addr constant [4 x i8] c"s%s\00", align 1
@.str.30 = private unnamed_addr constant [43 x i8] c"Malformed polynomium set %s. need %d coefs\00", align 1

; Function Attrs: mustprogress uwtable
define internal noundef i32 @_ZL11parse_coefsP8PJconstsPdPKci(ptr noundef %0, ptr noundef %1, ptr noundef %2, i32 noundef %3) #0 {
  %5 = alloca i32, align 4
  %6 = alloca ptr, align 8
  %7 = alloca ptr, align 8
  %8 = alloca ptr, align 8
  %9 = alloca i32, align 4
  %10 = alloca ptr, align 8
  %11 = alloca ptr, align 8
  %12 = alloca ptr, align 8
  %13 = alloca i32, align 4
  %14 = alloca i64, align 8
  %15 = alloca %union.PROJVALUE, align 8
  %16 = alloca %union.PROJVALUE, align 8
  store ptr %0, ptr %6, align 8
  store ptr %1, ptr %7, align 8
  store ptr %2, ptr %8, align 8
  store i32 %3, ptr %9, align 4
  store ptr null, ptr %12, align 8
  %17 = load ptr, ptr %8, align 8
  %18 = call i64 @strlen(ptr noundef %17) #9
  %19 = add i64 %18, 2
  store i64 %19, ptr %14, align 8
  %20 = load i64, ptr %14, align 8
  %21 = call noalias ptr @calloc(i64 noundef %20, i64 noundef 1) #8
  store ptr %21, ptr %10, align 8
  %22 = load ptr, ptr %10, align 8
  %23 = icmp eq ptr null, %22
  br i1 %23, label %24, label %26

24:                                               ; preds = %4
  %25 = load ptr, ptr %6, align 8
  call void (ptr, ptr, ...) @_Z14proj_log_errorPK8PJconstsPKcz(ptr noundef %25, ptr noundef @.str.27)
  store i32 0, ptr %5, align 4
  br label %93

26:                                               ; preds = %4
  %27 = load ptr, ptr %10, align 8
  %28 = load i64, ptr %14, align 8
  %29 = load ptr, ptr %8, align 8
  %30 = call i32 (ptr, i64, ptr, ...) @snprintf(ptr noundef %27, i64 noundef %28, ptr noundef @.str.28, ptr noundef %29) #10
  %31 = load ptr, ptr %6, align 8
  %32 = getelementptr inbounds %struct.PJconsts, ptr %31, i32 0, i32 0
  %33 = load ptr, ptr %32, align 8
  %34 = load ptr, ptr %6, align 8
  %35 = getelementptr inbounds %struct.PJconsts, ptr %34, i32 0, i32 3
  %36 = load ptr, ptr %35, align 8
  %37 = load ptr, ptr %10, align 8
  %38 = call i64 @_Z8pj_paramP6pj_ctxP8ARG_listPKc(ptr noundef %33, ptr noundef %36, ptr noundef %37)
  %39 = getelementptr inbounds %union.PROJVALUE, ptr %15, i32 0, i32 0
  store i64 %38, ptr %39, align 8
  %40 = load i32, ptr %15, align 8
  %41 = icmp eq i32 0, %40
  br i1 %41, label %42, label %44

42:                                               ; preds = %26
  %43 = load ptr, ptr %10, align 8
  call void @free(ptr noundef %43) #10
  store i32 0, ptr %5, align 4
  br label %93

44:                                               ; preds = %26
  %45 = load ptr, ptr %10, align 8
  %46 = load i64, ptr %14, align 8
  %47 = load ptr, ptr %8, align 8
  %48 = call i32 (ptr, i64, ptr, ...) @snprintf(ptr noundef %45, i64 noundef %46, ptr noundef @.str.29, ptr noundef %47) #10
  %49 = load ptr, ptr %6, align 8
  %50 = getelementptr inbounds %struct.PJconsts, ptr %49, i32 0, i32 0
  %51 = load ptr, ptr %50, align 8
  %52 = load ptr, ptr %6, align 8
  %53 = getelementptr inbounds %struct.PJconsts, ptr %52, i32 0, i32 3
  %54 = load ptr, ptr %53, align 8
  %55 = load ptr, ptr %10, align 8
  %56 = call i64 @_Z8pj_paramP6pj_ctxP8ARG_listPKc(ptr noundef %51, ptr noundef %54, ptr noundef %55)
  %57 = getelementptr inbounds %union.PROJVALUE, ptr %16, i32 0, i32 0
  store i64 %56, ptr %57, align 8
  %58 = load ptr, ptr %16, align 8
  store ptr %58, ptr %11, align 8
  %59 = load ptr, ptr %10, align 8
  call void @free(ptr noundef %59) #10
  store i32 0, ptr %13, align 4
  br label %60

60:                                               ; preds = %89, %44
  %61 = load i32, ptr %13, align 4
  %62 = load i32, ptr %9, align 4
  %63 = icmp slt i32 %61, %62
  br i1 %63, label %64, label %92

64:                                               ; preds = %60
  %65 = load i32, ptr %13, align 4
  %66 = icmp sgt i32 %65, 0
  br i1 %66, label %67, label %82

67:                                               ; preds = %64
  %68 = load ptr, ptr %12, align 8
  %69 = icmp eq ptr %68, null
  br i1 %69, label %75, label %70

70:                                               ; preds = %67
  %71 = load ptr, ptr %12, align 8
  %72 = load i8, ptr %71, align 1
  %73 = sext i8 %72 to i32
  %74 = icmp ne i32 44, %73
  br i1 %74, label %75, label %79

75:                                               ; preds = %70, %67
  %76 = load ptr, ptr %6, align 8
  %77 = load ptr, ptr %8, align 8
  %78 = load i32, ptr %9, align 4
  call void (ptr, ptr, ...) @_Z14proj_log_errorPK8PJconstsPKcz(ptr noundef %76, ptr noundef @.str.30, ptr noundef %77, i32 noundef %78)
  store i32 0, ptr %5, align 4
  br label %93

79:                                               ; preds = %70
  %80 = load ptr, ptr %12, align 8
  %81 = getelementptr inbounds i8, ptr %80, i32 1
  store ptr %81, ptr %12, align 8
  store ptr %81, ptr %11, align 8
  br label %82

82:                                               ; preds = %79, %64
  %83 = load ptr, ptr %11, align 8
  %84 = call noundef double @_Z9pj_strtodPKcPPc(ptr noundef %83, ptr noundef %12)
  %85 = load ptr, ptr %7, align 8
  %86 = load i32, ptr %13, align 4
  %87 = sext i32 %86 to i64
  %88 = getelementptr inbounds double, ptr %85, i64 %87
  store double %84, ptr %88, align 8
  br label %89

89:                                               ; preds = %82
  %90 = load i32, ptr %13, align 4
  %91 = add nsw i32 %90, 1
  store i32 %91, ptr %13, align 4
  br label %60, !llvm.loop !4

92:                                               ; preds = %60
  store i32 1, ptr %5, align 4
  br label %93

93:                                               ; preds = %92, %75, %42, %24
  %94 = load i32, ptr %5, align 4
  ret i32 %94
}