; Function Attrs: mustprogress uwtable
define internal fastcc noundef i32 @_ZL11parse_coefsP8PJconstsPdPKci(ptr noundef %0, ptr nocapture noundef writeonly %1, ptr noundef %2, i32 noundef %3) unnamed_addr #0 {
  %5 = alloca ptr, align 8
  store ptr null, ptr %5, align 8
  %6 = tail call i64 @strlen(ptr noundef nonnull dereferenceable(1) %2) #11
  %7 = add i64 %6, 2
  %8 = tail call noalias ptr @calloc(i64 noundef %7, i64 noundef 1) #9
  %9 = icmp eq ptr %8, null
  br i1 %9, label %10, label %11

10:                                               ; preds = %4
  tail call void (ptr, ptr, ...) @_Z14proj_log_errorPK8PJconstsPKcz(ptr noundef %0, ptr noundef nonnull @.str.27)
  br label %.loopexit

11:                                               ; preds = %4
  %12 = tail call i32 (ptr, i64, ptr, ...) @snprintf(ptr noundef nonnull %8, i64 noundef %7, ptr noundef nonnull @.str.28, ptr noundef %2) #10
  %13 = load ptr, ptr %0, align 8
  %14 = getelementptr inbounds i8, ptr %0, i64 24
  %15 = load ptr, ptr %14, align 8
  %16 = tail call i64 @_Z8pj_paramP6pj_ctxP8ARG_listPKc(ptr noundef %13, ptr noundef %15, ptr noundef nonnull %8)
  %17 = and i64 %16, 4294967295
  %18 = icmp eq i64 %17, 0
  br i1 %18, label %19, label %20

19:                                               ; preds = %11
  tail call void @free(ptr noundef nonnull %8) #10
  br label %.loopexit

20:                                               ; preds = %11
  %21 = tail call i32 (ptr, i64, ptr, ...) @snprintf(ptr noundef nonnull %8, i64 noundef %7, ptr noundef nonnull @.str.29, ptr noundef %2) #10
  %22 = load ptr, ptr %0, align 8
  %23 = load ptr, ptr %14, align 8
  %24 = tail call i64 @_Z8pj_paramP6pj_ctxP8ARG_listPKc(ptr noundef %22, ptr noundef %23, ptr noundef nonnull %8)
  tail call void @free(ptr noundef nonnull %8) #10
  %25 = icmp sgt i32 %3, 0
  br i1 %25, label %.lr.ph.preheader, label %.loopexit

.lr.ph.preheader:                                 ; preds = %20
  %.sroa.0.0..sroa.0.0..cast = inttoptr i64 %24 to ptr
  %wide.trip.count = zext nneg i32 %3 to i64
  br label %.lr.ph

.lr.ph:                                           ; preds = %.lr.ph.preheader, %34
  %indvars.iv = phi i64 [ 0, %.lr.ph.preheader ], [ %indvars.iv.next, %34 ]
  %.02936 = phi ptr [ %.sroa.0.0..sroa.0.0..cast, %.lr.ph.preheader ], [ %.1, %34 ]
  %.not = icmp eq i64 %indvars.iv, 0
  br i1 %.not, label %34, label %26

26:                                               ; preds = %.lr.ph
  %27 = load ptr, ptr %5, align 8
  %28 = icmp eq ptr %27, null
  br i1 %28, label %31, label %29

29:                                               ; preds = %26
  %30 = load i8, ptr %27, align 1
  %.not34 = icmp eq i8 %30, 44
  br i1 %.not34, label %32, label %31

31:                                               ; preds = %29, %26
  call void (ptr, ptr, ...) @_Z14proj_log_errorPK8PJconstsPKcz(ptr noundef nonnull %0, ptr noundef nonnull @.str.30, ptr noundef %2, i32 noundef %3)
  br label %.loopexit

32:                                               ; preds = %29
  %33 = getelementptr inbounds i8, ptr %27, i64 1
  store ptr %33, ptr %5, align 8
  br label %34

34:                                               ; preds = %32, %.lr.ph
  %.1 = phi ptr [ %33, %32 ], [ %.02936, %.lr.ph ]
  %35 = call noundef double @_Z9pj_strtodPKcPPc(ptr noundef %.1, ptr noundef nonnull %5)
  %36 = getelementptr inbounds double, ptr %1, i64 %indvars.iv
  store double %35, ptr %36, align 8
  %indvars.iv.next = add nuw nsw i64 %indvars.iv, 1
  %exitcond.not = icmp eq i64 %indvars.iv.next, %wide.trip.count
  br i1 %exitcond.not, label %.loopexit, label %.lr.ph, !llvm.loop !12

.loopexit:                                        ; preds = %34, %20, %31, %19, %10
  %.0 = phi i32 [ 0, %10 ], [ 0, %19 ], [ 0, %31 ], [ 1, %20 ], [ 1, %34 ]
  ret i32 %.0
}